target datalayout = "e-m:e-p270:32:32-p271:32:32-p272:64:64-i64:64-i128:128-f80:128-n8:16:32:64-S128"
target triple = "x86_64-pc-linux-gnu"

@.str.2 = private unnamed_addr constant [57 x i8] c"Memory for processing UTF-8 data could not be allocated.\00", align 1
@.str.3 = private unnamed_addr constant [42 x i8] c"UTF-8 string is too long to be processed.\00", align 1
@.str.4 = private unnamed_addr constant [21 x i8] c"Invalid UTF-8 string\00", align 1
@.str.5 = private unnamed_addr constant [53 x i8] c"Unassigned Unicode code point found in UTF-8 string.\00", align 1
@.str.6 = private unnamed_addr constant [45 x i8] c"Invalid options for UTF-8 processing chosen.\00", align 1
@.str.7 = private unnamed_addr constant [55 x i8] c"An unknown error occurred while processing UTF-8 data.\00", align 1

; Function Attrs: mustprogress nounwind uwtable
define noundef ptr @_ZN6duckdb15utf8proc_errmsgEl(i64 noundef %0) #0 {
  %2 = alloca ptr, align 8
  %3 = alloca i64, align 8
  store i64 %0, ptr %3, align 8, !tbaa !3
  %4 = load i64, ptr %3, align 8, !tbaa !3
  switch i64 %4, label %10 [
    i64 -1, label %5
    i64 -2, label %6
    i64 -3, label %7
    i64 -4, label %8
    i64 -5, label %9
  ]

5:                                                ; preds = %1
  store ptr @.str.2, ptr %2, align 8
  br label %11

6:                                                ; preds = %1
  store ptr @.str.3, ptr %2, align 8
  br label %11

7:                                                ; preds = %1
  store ptr @.str.4, ptr %2, align 8
  br label %11

8:                                                ; preds = %1
  store ptr @.str.5, ptr %2, align 8
  br label %11

9:                                                ; preds = %1
  store ptr @.str.6, ptr %2, align 8
  br label %11

10:                                               ; preds = %1
  store ptr @.str.7, ptr %2, align 8
  br label %11

11:                                               ; preds = %10, %9, %8, %7, %6, %5
  %12 = load ptr, ptr %2, align 8
  ret ptr %12
}