; Function Attrs: mustprogress nofree norecurse nosync nounwind willreturn memory(none) uwtable
define noundef nonnull ptr @_ZN6duckdb15utf8proc_errmsgEl(i64 noundef %0) local_unnamed_addr #0 {
  %2 = icmp ugt i64 %0, -6
  br i1 %2, label %switch.lookup, label %3

switch.lookup:                                    ; preds = %1
  %switch.tableidx = add i64 %0, 5
  %switch.gep = getelementptr inbounds [5 x ptr], ptr @switch.table._ZN6duckdb15utf8proc_errmsgEl, i64 0, i64 %switch.tableidx
  %switch.load = load ptr, ptr %switch.gep, align 8
  br label %3

3:                                                ; preds = %1, %switch.lookup
  %.0 = phi ptr [ %switch.load, %switch.lookup ], [ @.str.7, %1 ]
  ret ptr %.0
}